target datalayout = "e-m:e-p270:32:32-p271:32:32-p272:64:64-i64:64-i128:128-f80:128-n8:16:32:64-S128"
target triple = "x86_64-unknown-linux-gnu"

; Function Attrs: nounwind uwtable
define dso_local ptr @evutil_monotonic_timer_new() #0 {
entry:
  %p = alloca ptr, align 8
  store ptr null, ptr %p, align 8
  %call = call ptr @event_mm_malloc_(i64 noundef 40)
  store ptr %call, ptr %p, align 8
  %0 = load ptr, ptr %p, align 8
  %tobool = icmp ne ptr %0, null
  br i1 %tobool, label %if.end, label %if.then

if.then:                                          ; preds = %entry
  br label %done

if.end:                                           ; preds = %entry
  %1 = load ptr, ptr %p, align 8
  call void @llvm.memset.p0.i64(ptr align 8 %1, i8 0, i64 40, i1 false)
  br label %done

done:                                             ; preds = %if.end, %if.then
  %2 = load ptr, ptr %p, align 8
  ret ptr %2
}