; Function Attrs: nounwind uwtable
define dso_local ptr @evutil_monotonic_timer_new() local_unnamed_addr #1 {
entry:
  %call = tail call ptr @event_mm_malloc_(i64 noundef 40) #8
  %tobool.not = icmp eq ptr %call, null
  br i1 %tobool.not, label %done, label %if.end

if.end:                                           ; preds = %entry
  tail call void @llvm.memset.p0.i64(ptr noundef nonnull align 8 dereferenceable(40) %call, i8 0, i64 40, i1 false)
  br label %done

done:                                             ; preds = %entry, %if.end
  ret ptr %call
}